target datalayout = "e-m:e-p270:32:32-p271:32:32-p272:64:64-i64:64-i128:128-f80:128-n8:16:32:64-S128"
target triple = "x86_64-unknown-linux-gnu"

@__const._ZN19OpenColorIO_v2_4dev14CreateMinMaxOpERNS_10OpRcPtrVecEPKdS3_NS_18TransformDirectionE.scale4 = private unnamed_addr constant [4 x double] [double 1.000000e+00, double 1.000000e+00, double 1.000000e+00, double 1.000000e+00], align 16

; Function Attrs: mustprogress uwtable
define hidden void @_ZN19OpenColorIO_v2_4dev19CreateScaleOffsetOpERNS_10OpRcPtrVecEPKdS3_NS_18TransformDirectionE(ptr noundef nonnull align 8 dereferenceable(144) %ops, ptr noundef %scale4, ptr noundef %offset4, i32 noundef %direction) #4 {
entry:
  %ops.addr = alloca ptr, align 8
  %scale4.addr = alloca ptr, align 8
  %offset4.addr = alloca ptr, align 8
  %direction.addr = alloca i32, align 4
  %m44 = alloca [16 x double], align 16
  store ptr %ops, ptr %ops.addr, align 8
  store ptr %scale4, ptr %scale4.addr, align 8
  store ptr %offset4, ptr %offset4.addr, align 8
  store i32 %direction, ptr %direction.addr, align 4
  call void @llvm.memset.p0.i64(ptr align 16 %m44, i8 0, i64 128, i1 false)
  %0 = load ptr, ptr %scale4.addr, align 8
  %arrayidx = getelementptr inbounds double, ptr %0, i64 0
  %1 = load double, ptr %arrayidx, align 8
  %arrayidx1 = getelementptr inbounds [16 x double], ptr %m44, i64 0, i64 0
  store double %1, ptr %arrayidx1, align 16
  %2 = load ptr, ptr %scale4.addr, align 8
  %arrayidx2 = getelementptr inbounds double, ptr %2, i64 1
  %3 = load double, ptr %arrayidx2, align 8
  %arrayidx3 = getelementptr inbounds [16 x double], ptr %m44, i64 0, i64 5
  store double %3, ptr %arrayidx3, align 8
  %4 = load ptr, ptr %scale4.addr, align 8
  %arrayidx4 = getelementptr inbounds double, ptr %4, i64 2
  %5 = load double, ptr %arrayidx4, align 8
  %arrayidx5 = getelementptr inbounds [16 x double], ptr %m44, i64 0, i64 10
  store double %5, ptr %arrayidx5, align 16
  %6 = load ptr, ptr %scale4.addr, align 8
  %arrayidx6 = getelementptr inbounds double, ptr %6, i64 3
  %7 = load double, ptr %arrayidx6, align 8
  %arrayidx7 = getelementptr inbounds [16 x double], ptr %m44, i64 0, i64 15
  store double %7, ptr %arrayidx7, align 8
  %8 = load ptr, ptr %ops.addr, align 8
  %arraydecay = getelementptr inbounds [16 x double], ptr %m44, i64 0, i64 0
  %9 = load ptr, ptr %offset4.addr, align 8
  %10 = load i32, ptr %direction.addr, align 4
  call void @_ZN19OpenColorIO_v2_4dev20CreateMatrixOffsetOpERNS_10OpRcPtrVecEPKdS3_NS_18TransformDirectionE(ptr noundef nonnull align 8 dereferenceable(144) %8, ptr noundef %arraydecay, ptr noundef %9, i32 noundef %10)
  ret void
}

; Function Attrs: mustprogress uwtable
define hidden void @_ZN19OpenColorIO_v2_4dev14CreateMinMaxOpERNS_10OpRcPtrVecEPKdS3_NS_18TransformDirectionE(ptr noundef nonnull align 8 dereferenceable(144) %ops, ptr noundef %from_min3, ptr noundef %from_max3, i32 noundef %direction) #4 {
entry:
  %ops.addr = alloca ptr, align 8
  %from_min3.addr = alloca ptr, align 8
  %from_max3.addr = alloca ptr, align 8
  %direction.addr = alloca i32, align 4
  %scale4 = alloca [4 x double], align 16
  %offset4 = alloca [4 x double], align 16
  %somethingToDo = alloca i8, align 1
  %i = alloca i32, align 4
  store ptr %ops, ptr %ops.addr, align 8
  store ptr %from_min3, ptr %from_min3.addr, align 8
  store ptr %from_max3, ptr %from_max3.addr, align 8
  store i32 %direction, ptr %direction.addr, align 4
  call void @llvm.memcpy.p0.p0.i64(ptr align 16 %scale4, ptr align 16 @__const._ZN19OpenColorIO_v2_4dev14CreateMinMaxOpERNS_10OpRcPtrVecEPKdS3_NS_18TransformDirectionE.scale4, i64 32, i1 false)
  call void @llvm.memset.p0.i64(ptr align 16 %offset4, i8 0, i64 32, i1 false)
  store i8 0, ptr %somethingToDo, align 1
  store i32 0, ptr %i, align 4
  br label %for.cond

for.cond:                                         ; preds = %for.inc, %entry
  %0 = load i32, ptr %i, align 4
  %cmp = icmp slt i32 %0, 3
  br i1 %cmp, label %for.body, label %for.end

for.body:                                         ; preds = %for.cond
  %1 = load ptr, ptr %from_max3.addr, align 8
  %2 = load i32, ptr %i, align 4
  %idxprom = sext i32 %2 to i64
  %arrayidx = getelementptr inbounds double, ptr %1, i64 %idxprom
  %3 = load double, ptr %arrayidx, align 8
  %4 = load ptr, ptr %from_min3.addr, align 8
  %5 = load i32, ptr %i, align 4
  %idxprom1 = sext i32 %5 to i64
  %arrayidx2 = getelementptr inbounds double, ptr %4, i64 %idxprom1
  %6 = load double, ptr %arrayidx2, align 8
  %sub = fsub double %3, %6
  %div = fdiv double 1.000000e+00, %sub
  %7 = load i32, ptr %i, align 4
  %idxprom3 = sext i32 %7 to i64
  %arrayidx4 = getelementptr inbounds [4 x double], ptr %scale4, i64 0, i64 %idxprom3
  store double %div, ptr %arrayidx4, align 8
  %8 = load ptr, ptr %from_min3.addr, align 8
  %9 = load i32, ptr %i, align 4
  %idxprom5 = sext i32 %9 to i64
  %arrayidx6 = getelementptr inbounds double, ptr %8, i64 %idxprom5
  %10 = load double, ptr %arrayidx6, align 8
  %fneg = fneg double %10
  %11 = load i32, ptr %i, align 4
  %idxprom7 = sext i32 %11 to i64
  %arrayidx8 = getelementptr inbounds [4 x double], ptr %scale4, i64 0, i64 %idxprom7
  %12 = load double, ptr %arrayidx8, align 8
  %mul = fmul double %fneg, %12
  %13 = load i32, ptr %i, align 4
  %idxprom9 = sext i32 %13 to i64
  %arrayidx10 = getelementptr inbounds [4 x double], ptr %offset4, i64 0, i64 %idxprom9
  store double %mul, ptr %arrayidx10, align 8
  %14 = load i32, ptr %i, align 4
  %idxprom11 = sext i32 %14 to i64
  %arrayidx12 = getelementptr inbounds [4 x double], ptr %scale4, i64 0, i64 %idxprom11
  %15 = load double, ptr %arrayidx12, align 8
  %cmp13 = fcmp une double %15, 1.000000e+00
  br i1 %cmp13, label %lor.end, label %lor.rhs

lor.rhs:                                          ; preds = %for.body
  %16 = load i32, ptr %i, align 4
  %idxprom14 = sext i32 %16 to i64
  %arrayidx15 = getelementptr inbounds [4 x double], ptr %offset4, i64 0, i64 %idxprom14
  %17 = load double, ptr %arrayidx15, align 8
  %cmp16 = fcmp une double %17, 0.000000e+00
  br label %lor.end

lor.end:                                          ; preds = %lor.rhs, %for.body
  %18 = phi i1 [ true, %for.body ], [ %cmp16, %lor.rhs ]
  %conv = zext i1 %18 to i32
  %19 = load i8, ptr %somethingToDo, align 1
  %tobool = trunc i8 %19 to i1
  %conv17 = zext i1 %tobool to i32
  %or = or i32 %conv17, %conv
  %tobool18 = icmp ne i32 %or, 0
  %frombool = zext i1 %tobool18 to i8
  store i8 %frombool, ptr %somethingToDo, align 1
  br label %for.inc

for.inc:                                          ; preds = %lor.end
  %20 = load i32, ptr %i, align 4
  %inc = add nsw i32 %20, 1
  store i32 %inc, ptr %i, align 4
  br label %for.cond, !llvm.loop !4

for.end:                                          ; preds = %for.cond
  %21 = load i8, ptr %somethingToDo, align 1
  %tobool19 = trunc i8 %21 to i1
  br i1 %tobool19, label %if.then, label %if.end

if.then:                                          ; preds = %for.end
  %22 = load ptr, ptr %ops.addr, align 8
  %arraydecay = getelementptr inbounds [4 x double], ptr %scale4, i64 0, i64 0
  %arraydecay20 = getelementptr inbounds [4 x double], ptr %offset4, i64 0, i64 0
  %23 = load i32, ptr %direction.addr, align 4
  call void @_ZN19OpenColorIO_v2_4dev19CreateScaleOffsetOpERNS_10OpRcPtrVecEPKdS3_NS_18TransformDirectionE(ptr noundef nonnull align 8 dereferenceable(144) %22, ptr noundef %arraydecay, ptr noundef %arraydecay20, i32 noundef %23)
  br label %if.end

if.end:                                           ; preds = %if.then, %for.end
  ret void
}

; Function Attrs: mustprogress uwtable
define hidden void @_ZN19OpenColorIO_v2_4dev14CreateMinMaxOpERNS_10OpRcPtrVecEffNS_18TransformDirectionE(ptr noundef nonnull align 8 dereferenceable(144) %ops, float noundef %from_min, float noundef %from_max, i32 noundef %direction) #4 {
entry:
  %ops.addr = alloca ptr, align 8
  %from_min.addr = alloca float, align 4
  %from_max.addr = alloca float, align 4
  %direction.addr = alloca i32, align 4
  %min = alloca [3 x double], align 16
  %max = alloca [3 x double], align 16
  store ptr %ops, ptr %ops.addr, align 8
  store float %from_min, ptr %from_min.addr, align 4
  store float %from_max, ptr %from_max.addr, align 4
  store i32 %direction, ptr %direction.addr, align 4
  %arrayinit.begin = getelementptr inbounds [3 x double], ptr %min, i64 0, i64 0
  %0 = load float, ptr %from_min.addr, align 4
  %conv = fpext float %0 to double
  store double %conv, ptr %arrayinit.begin, align 8
  %arrayinit.element = getelementptr inbounds double, ptr %arrayinit.begin, i64 1
  %1 = load float, ptr %from_min.addr, align 4
  %conv1 = fpext float %1 to double
  store double %conv1, ptr %arrayinit.element, align 8
  %arrayinit.element2 = getelementptr inbounds double, ptr %arrayinit.element, i64 1
  %2 = load float, ptr %from_min.addr, align 4
  %conv3 = fpext float %2 to double
  store double %conv3, ptr %arrayinit.element2, align 8
  %arrayinit.begin4 = getelementptr inbounds [3 x double], ptr %max, i64 0, i64 0
  %3 = load float, ptr %from_max.addr, align 4
  %conv5 = fpext float %3 to double
  store double %conv5, ptr %arrayinit.begin4, align 8
  %arrayinit.element6 = getelementptr inbounds double, ptr %arrayinit.begin4, i64 1
  %4 = load float, ptr %from_max.addr, align 4
  %conv7 = fpext float %4 to double
  store double %conv7, ptr %arrayinit.element6, align 8
  %arrayinit.element8 = getelementptr inbounds double, ptr %arrayinit.element6, i64 1
  %5 = load float, ptr %from_max.addr, align 4
  %conv9 = fpext float %5 to double
  store double %conv9, ptr %arrayinit.element8, align 8
  %6 = load ptr, ptr %ops.addr, align 8
  %arraydecay = getelementptr inbounds [3 x double], ptr %min, i64 0, i64 0
  %arraydecay10 = getelementptr inbounds [3 x double], ptr %max, i64 0, i64 0
  %7 = load i32, ptr %direction.addr, align 4
  call void @_ZN19OpenColorIO_v2_4dev14CreateMinMaxOpERNS_10OpRcPtrVecEPKdS3_NS_18TransformDirectionE(ptr noundef nonnull align 8 dereferenceable(144) %6, ptr noundef %arraydecay, ptr noundef %arraydecay10, i32 noundef %7)
  ret void
}