; Function Attrs: mustprogress uwtable
define hidden void @_ZN19OpenColorIO_v2_4dev14CreateMinMaxOpERNS_10OpRcPtrVecEffNS_18TransformDirectionE(ptr noundef nonnull align 8 dereferenceable(144) %ops, float noundef %from_min, float noundef %from_max, i32 noundef %direction) local_unnamed_addr #3 {
entry:
  %m44.i.i = alloca [16 x double], align 16
  %scale4.i = alloca [4 x double], align 16
  %offset4.i = alloca [4 x double], align 16
  %min = alloca [3 x double], align 16
  %max = alloca [3 x double], align 16
  %conv = fpext float %from_min to double
  store double %conv, ptr %min, align 16
  %arrayinit.element = getelementptr inbounds i8, ptr %min, i64 8
  store double %conv, ptr %arrayinit.element, align 8
  %arrayinit.element2 = getelementptr inbounds i8, ptr %min, i64 16
  store double %conv, ptr %arrayinit.element2, align 16
  %conv5 = fpext float %from_max to double
  store double %conv5, ptr %max, align 16
  %arrayinit.element6 = getelementptr inbounds i8, ptr %max, i64 8
  store double %conv5, ptr %arrayinit.element6, align 8
  %arrayinit.element8 = getelementptr inbounds i8, ptr %max, i64 16
  store double %conv5, ptr %arrayinit.element8, align 16
  call void @llvm.lifetime.start.p0(i64 32, ptr nonnull %scale4.i)
  call void @llvm.lifetime.start.p0(i64 32, ptr nonnull %offset4.i)
  call void @llvm.memcpy.p0.p0.i64(ptr noundef nonnull align 16 dereferenceable(32) %scale4.i, ptr noundef nonnull align 16 dereferenceable(32) @__const._ZN19OpenColorIO_v2_4dev14CreateMinMaxOpERNS_10OpRcPtrVecEPKdS3_NS_18TransformDirectionE.scale4, i64 32, i1 false)
  call void @llvm.memset.p0.i64(ptr noundef nonnull align 16 dereferenceable(32) %offset4.i, i8 0, i64 32, i1 false)
  br label %for.body.i

for.body.i:                                       ; preds = %for.body.i, %entry
  %indvars.iv.i = phi i64 [ 0, %entry ], [ %indvars.iv.next.i, %for.body.i ]
  %somethingToDo.013.i = phi i1 [ false, %entry ], [ %or12.i, %for.body.i ]
  %arrayidx.i = getelementptr inbounds double, ptr %max, i64 %indvars.iv.i
  %0 = load double, ptr %arrayidx.i, align 8
  %arrayidx2.i = getelementptr inbounds double, ptr %min, i64 %indvars.iv.i
  %1 = load double, ptr %arrayidx2.i, align 8
  %sub.i = fsub double %0, %1
  %div.i = fdiv double 1.000000e+00, %sub.i
  %arrayidx4.i = getelementptr inbounds [4 x double], ptr %scale4.i, i64 0, i64 %indvars.iv.i
  store double %div.i, ptr %arrayidx4.i, align 8
  %fneg.i = fneg double %1
  %mul.i = fmul double %div.i, %fneg.i
  %arrayidx10.i = getelementptr inbounds [4 x double], ptr %offset4.i, i64 0, i64 %indvars.iv.i
  store double %mul.i, ptr %arrayidx10.i, align 8
  %cmp13.i = fcmp une double %div.i, 1.000000e+00
  %cmp16.i = fcmp une double %mul.i, 0.000000e+00
  %2 = select i1 %cmp13.i, i1 true, i1 %cmp16.i
  %or12.i = or i1 %somethingToDo.013.i, %2
  %indvars.iv.next.i = add nuw nsw i64 %indvars.iv.i, 1
  %exitcond.not.i = icmp eq i64 %indvars.iv.next.i, 3
  br i1 %exitcond.not.i, label %for.end.i, label %for.body.i, !llvm.loop !14

for.end.i:                                        ; preds = %for.body.i
  br i1 %or12.i, label %if.then.i, label %_ZN19OpenColorIO_v2_4dev14CreateMinMaxOpERNS_10OpRcPtrVecEPKdS3_NS_18TransformDirectionE.exit

if.then.i:                                        ; preds = %for.end.i
  call void @llvm.lifetime.start.p0(i64 128, ptr nonnull %m44.i.i)
  call void @llvm.memset.p0.i64(ptr noundef nonnull align 16 dereferenceable(128) %m44.i.i, i8 0, i64 128, i1 false)
  %3 = load double, ptr %scale4.i, align 16
  store double %3, ptr %m44.i.i, align 16
  %arrayidx2.i.i = getelementptr inbounds i8, ptr %scale4.i, i64 8
  %4 = load double, ptr %arrayidx2.i.i, align 8
  %arrayidx3.i.i = getelementptr inbounds i8, ptr %m44.i.i, i64 40
  store double %4, ptr %arrayidx3.i.i, align 8
  %arrayidx4.i.i = getelementptr inbounds i8, ptr %scale4.i, i64 16
  %5 = load double, ptr %arrayidx4.i.i, align 16
  %arrayidx5.i.i = getelementptr inbounds i8, ptr %m44.i.i, i64 80
  store double %5, ptr %arrayidx5.i.i, align 16
  %arrayidx6.i.i = getelementptr inbounds i8, ptr %scale4.i, i64 24
  %6 = load double, ptr %arrayidx6.i.i, align 8
  %arrayidx7.i.i = getelementptr inbounds i8, ptr %m44.i.i, i64 120
  store double %6, ptr %arrayidx7.i.i, align 8
  call void @_ZN19OpenColorIO_v2_4dev20CreateMatrixOffsetOpERNS_10OpRcPtrVecEPKdS3_NS_18TransformDirectionE(ptr noundef nonnull align 8 dereferenceable(144) %ops, ptr noundef nonnull %m44.i.i, ptr noundef nonnull %offset4.i, i32 noundef %direction)
  call void @llvm.lifetime.end.p0(i64 128, ptr nonnull %m44.i.i)
  br label %_ZN19OpenColorIO_v2_4dev14CreateMinMaxOpERNS_10OpRcPtrVecEPKdS3_NS_18TransformDirectionE.exit

_ZN19OpenColorIO_v2_4dev14CreateMinMaxOpERNS_10OpRcPtrVecEPKdS3_NS_18TransformDirectionE.exit: ; preds = %for.end.i, %if.then.i
  call void @llvm.lifetime.end.p0(i64 32, ptr nonnull %scale4.i)
  call void @llvm.lifetime.end.p0(i64 32, ptr nonnull %offset4.i)
  ret void
}